target datalayout = "e-m:e-p270:32:32-p271:32:32-p272:64:64-i64:64-i128:128-f80:128-n8:16:32:64-S128"
target triple = "x86_64-pc-linux-gnu"

%union.anon = type { i32 }
%struct.BIT_DStream_t = type { i64, i32, ptr, ptr }

@__const.MEM_isLittleEndian.one = private unnamed_addr constant %union.anon { i32 1 }, align 4

; Function Attrs: inlinehint nounwind uwtable
define internal i64 @MEM_read64(ptr noundef %0) #2 {
  %2 = alloca ptr, align 8
  %3 = alloca i64, align 8
  store ptr %0, ptr %2, align 8, !tbaa !3
  call void @llvm.lifetime.start.p0(i64 8, ptr %3) #9
  %4 = load ptr, ptr %2, align 8, !tbaa !3
  call void @llvm.memcpy.p0.p0.i64(ptr align 8 %3, ptr align 1 %4, i64 8, i1 false)
  %5 = load i64, ptr %3, align 8, !tbaa !7
  call void @llvm.lifetime.end.p0(i64 8, ptr %3) #9
  ret i64 %5
}

; Function Attrs: inlinehint nounwind uwtable
define internal i32 @MEM_read32(ptr noundef %0) #2 {
  %2 = alloca ptr, align 8
  %3 = alloca i32, align 4
  store ptr %0, ptr %2, align 8, !tbaa !3
  call void @llvm.lifetime.start.p0(i64 4, ptr %3) #9
  %4 = load ptr, ptr %2, align 8, !tbaa !3
  call void @llvm.memcpy.p0.p0.i64(ptr align 4 %3, ptr align 1 %4, i64 4, i1 false)
  %5 = load i32, ptr %3, align 4, !tbaa !15
  call void @llvm.lifetime.end.p0(i64 4, ptr %3) #9
  ret i32 %5
}

; Function Attrs: inlinehint nounwind uwtable
define internal i32 @MEM_isLittleEndian() #2 {
  %1 = alloca %union.anon, align 4
  call void @llvm.lifetime.start.p0(i64 4, ptr %1) #9
  call void @llvm.memcpy.p0.p0.i64(ptr align 4 %1, ptr align 4 @__const.MEM_isLittleEndian.one, i64 4, i1 false)
  %2 = getelementptr inbounds [4 x i8], ptr %1, i64 0, i64 0
  %3 = load i8, ptr %2, align 4, !tbaa !19
  %4 = zext i8 %3 to i32
  call void @llvm.lifetime.end.p0(i64 4, ptr %1) #9
  ret i32 %4
}

; Function Attrs: inlinehint nounwind uwtable
define internal i64 @MEM_readLE64(ptr noundef %0) #2 {
  %2 = alloca i64, align 8
  %3 = alloca ptr, align 8
  %4 = alloca ptr, align 8
  store ptr %0, ptr %3, align 8, !tbaa !3
  %5 = call i32 @MEM_isLittleEndian()
  %6 = icmp ne i32 %5, 0
  br i1 %6, label %7, label %10

7:                                                ; preds = %1
  %8 = load ptr, ptr %3, align 8, !tbaa !3
  %9 = call i64 @MEM_read64(ptr noundef %8)
  store i64 %9, ptr %2, align 8
  br label %58

10:                                               ; preds = %1
  call void @llvm.lifetime.start.p0(i64 8, ptr %4) #9
  %11 = load ptr, ptr %3, align 8, !tbaa !3
  store ptr %11, ptr %4, align 8, !tbaa !13
  %12 = load ptr, ptr %4, align 8, !tbaa !13
  %13 = getelementptr inbounds i8, ptr %12, i64 0
  %14 = load i8, ptr %13, align 1, !tbaa !19
  %15 = zext i8 %14 to i64
  %16 = load ptr, ptr %4, align 8, !tbaa !13
  %17 = getelementptr inbounds i8, ptr %16, i64 1
  %18 = load i8, ptr %17, align 1, !tbaa !19
  %19 = zext i8 %18 to i64
  %20 = shl i64 %19, 8
  %21 = add i64 %15, %20
  %22 = load ptr, ptr %4, align 8, !tbaa !13
  %23 = getelementptr inbounds i8, ptr %22, i64 2
  %24 = load i8, ptr %23, align 1, !tbaa !19
  %25 = zext i8 %24 to i64
  %26 = shl i64 %25, 16
  %27 = add i64 %21, %26
  %28 = load ptr, ptr %4, align 8, !tbaa !13
  %29 = getelementptr inbounds i8, ptr %28, i64 3
  %30 = load i8, ptr %29, align 1, !tbaa !19
  %31 = zext i8 %30 to i64
  %32 = shl i64 %31, 24
  %33 = add i64 %27, %32
  %34 = load ptr, ptr %4, align 8, !tbaa !13
  %35 = getelementptr inbounds i8, ptr %34, i64 4
  %36 = load i8, ptr %35, align 1, !tbaa !19
  %37 = zext i8 %36 to i64
  %38 = shl i64 %37, 32
  %39 = add i64 %33, %38
  %40 = load ptr, ptr %4, align 8, !tbaa !13
  %41 = getelementptr inbounds i8, ptr %40, i64 5
  %42 = load i8, ptr %41, align 1, !tbaa !19
  %43 = zext i8 %42 to i64
  %44 = shl i64 %43, 40
  %45 = add i64 %39, %44
  %46 = load ptr, ptr %4, align 8, !tbaa !13
  %47 = getelementptr inbounds i8, ptr %46, i64 6
  %48 = load i8, ptr %47, align 1, !tbaa !19
  %49 = zext i8 %48 to i64
  %50 = shl i64 %49, 48
  %51 = add i64 %45, %50
  %52 = load ptr, ptr %4, align 8, !tbaa !13
  %53 = getelementptr inbounds i8, ptr %52, i64 7
  %54 = load i8, ptr %53, align 1, !tbaa !19
  %55 = zext i8 %54 to i64
  %56 = shl i64 %55, 56
  %57 = add i64 %51, %56
  store i64 %57, ptr %2, align 8
  call void @llvm.lifetime.end.p0(i64 8, ptr %4) #9
  br label %58

58:                                               ; preds = %10, %7
  %59 = load i64, ptr %2, align 8
  ret i64 %59
}

; Function Attrs: inlinehint nounwind uwtable
define internal i32 @MEM_readLE32(ptr noundef %0) #2 {
  %2 = alloca i32, align 4
  %3 = alloca ptr, align 8
  %4 = alloca ptr, align 8
  store ptr %0, ptr %3, align 8, !tbaa !3
  %5 = call i32 @MEM_isLittleEndian()
  %6 = icmp ne i32 %5, 0
  br i1 %6, label %7, label %10

7:                                                ; preds = %1
  %8 = load ptr, ptr %3, align 8, !tbaa !3
  %9 = call i32 @MEM_read32(ptr noundef %8)
  store i32 %9, ptr %2, align 4
  br label %34

10:                                               ; preds = %1
  call void @llvm.lifetime.start.p0(i64 8, ptr %4) #9
  %11 = load ptr, ptr %3, align 8, !tbaa !3
  store ptr %11, ptr %4, align 8, !tbaa !13
  %12 = load ptr, ptr %4, align 8, !tbaa !13
  %13 = getelementptr inbounds i8, ptr %12, i64 0
  %14 = load i8, ptr %13, align 1, !tbaa !19
  %15 = zext i8 %14 to i32
  %16 = load ptr, ptr %4, align 8, !tbaa !13
  %17 = getelementptr inbounds i8, ptr %16, i64 1
  %18 = load i8, ptr %17, align 1, !tbaa !19
  %19 = zext i8 %18 to i32
  %20 = shl i32 %19, 8
  %21 = add i32 %15, %20
  %22 = load ptr, ptr %4, align 8, !tbaa !13
  %23 = getelementptr inbounds i8, ptr %22, i64 2
  %24 = load i8, ptr %23, align 1, !tbaa !19
  %25 = zext i8 %24 to i32
  %26 = shl i32 %25, 16
  %27 = add i32 %21, %26
  %28 = load ptr, ptr %4, align 8, !tbaa !13
  %29 = getelementptr inbounds i8, ptr %28, i64 3
  %30 = load i8, ptr %29, align 1, !tbaa !19
  %31 = zext i8 %30 to i32
  %32 = shl i32 %31, 24
  %33 = add i32 %27, %32
  store i32 %33, ptr %2, align 4
  call void @llvm.lifetime.end.p0(i64 8, ptr %4) #9
  br label %34

34:                                               ; preds = %10, %7
  %35 = load i32, ptr %2, align 4
  ret i32 %35
}

; Function Attrs: inlinehint nounwind uwtable
define internal i32 @MEM_32bits() #2 {
  ret i32 0
}

; Function Attrs: inlinehint nounwind uwtable
define internal i64 @MEM_readLEST(ptr noundef %0) #2 {
  %2 = alloca i64, align 8
  %3 = alloca ptr, align 8
  store ptr %0, ptr %3, align 8, !tbaa !3
  %4 = call i32 @MEM_32bits()
  %5 = icmp ne i32 %4, 0
  br i1 %5, label %6, label %10

6:                                                ; preds = %1
  %7 = load ptr, ptr %3, align 8, !tbaa !3
  %8 = call i32 @MEM_readLE32(ptr noundef %7)
  %9 = zext i32 %8 to i64
  store i64 %9, ptr %2, align 8
  br label %13

10:                                               ; preds = %1
  %11 = load ptr, ptr %3, align 8, !tbaa !3
  %12 = call i64 @MEM_readLE64(ptr noundef %11)
  store i64 %12, ptr %2, align 8
  br label %13

13:                                               ; preds = %10, %6
  %14 = load i64, ptr %2, align 8
  ret i64 %14
}

; Function Attrs: inlinehint nounwind uwtable
define internal i32 @BIT_reloadDStream(ptr noundef %0) #2 {
  %2 = alloca i32, align 4
  %3 = alloca ptr, align 8
  %4 = alloca i32, align 4
  %5 = alloca i32, align 4
  store ptr %0, ptr %3, align 8, !tbaa !3
  %6 = load ptr, ptr %3, align 8, !tbaa !3
  %7 = getelementptr inbounds nuw %struct.BIT_DStream_t, ptr %6, i32 0, i32 1
  %8 = load i32, ptr %7, align 8, !tbaa !79
  %9 = zext i32 %8 to i64
  %10 = icmp ugt i64 %9, 64
  br i1 %10, label %11, label %12

11:                                               ; preds = %1
  store i32 3, ptr %2, align 4
  br label %106

12:                                               ; preds = %1
  %13 = load ptr, ptr %3, align 8, !tbaa !3
  %14 = getelementptr inbounds nuw %struct.BIT_DStream_t, ptr %13, i32 0, i32 2
  %15 = load ptr, ptr %14, align 8, !tbaa !77
  %16 = load ptr, ptr %3, align 8, !tbaa !3
  %17 = getelementptr inbounds nuw %struct.BIT_DStream_t, ptr %16, i32 0, i32 3
  %18 = load ptr, ptr %17, align 8, !tbaa !76
  %19 = getelementptr inbounds nuw i8, ptr %18, i64 8
  %20 = icmp uge ptr %15, %19
  br i1 %20, label %21, label %42

21:                                               ; preds = %12
  %22 = load ptr, ptr %3, align 8, !tbaa !3
  %23 = getelementptr inbounds nuw %struct.BIT_DStream_t, ptr %22, i32 0, i32 1
  %24 = load i32, ptr %23, align 8, !tbaa !79
  %25 = lshr i32 %24, 3
  %26 = load ptr, ptr %3, align 8, !tbaa !3
  %27 = getelementptr inbounds nuw %struct.BIT_DStream_t, ptr %26, i32 0, i32 2
  %28 = load ptr, ptr %27, align 8, !tbaa !77
  %29 = zext i32 %25 to i64
  %30 = sub i64 0, %29
  %31 = getelementptr inbounds i8, ptr %28, i64 %30
  store ptr %31, ptr %27, align 8, !tbaa !77
  %32 = load ptr, ptr %3, align 8, !tbaa !3
  %33 = getelementptr inbounds nuw %struct.BIT_DStream_t, ptr %32, i32 0, i32 1
  %34 = load i32, ptr %33, align 8, !tbaa !79
  %35 = and i32 %34, 7
  store i32 %35, ptr %33, align 8, !tbaa !79
  %36 = load ptr, ptr %3, align 8, !tbaa !3
  %37 = getelementptr inbounds nuw %struct.BIT_DStream_t, ptr %36, i32 0, i32 2
  %38 = load ptr, ptr %37, align 8, !tbaa !77
  %39 = call i64 @MEM_readLEST(ptr noundef %38)
  %40 = load ptr, ptr %3, align 8, !tbaa !3
  %41 = getelementptr inbounds nuw %struct.BIT_DStream_t, ptr %40, i32 0, i32 0
  store i64 %39, ptr %41, align 8, !tbaa !78
  store i32 0, ptr %2, align 4
  br label %106

42:                                               ; preds = %12
  %43 = load ptr, ptr %3, align 8, !tbaa !3
  %44 = getelementptr inbounds nuw %struct.BIT_DStream_t, ptr %43, i32 0, i32 2
  %45 = load ptr, ptr %44, align 8, !tbaa !77
  %46 = load ptr, ptr %3, align 8, !tbaa !3
  %47 = getelementptr inbounds nuw %struct.BIT_DStream_t, ptr %46, i32 0, i32 3
  %48 = load ptr, ptr %47, align 8, !tbaa !76
  %49 = icmp eq ptr %45, %48
  br i1 %49, label %50, label %58

50:                                               ; preds = %42
  %51 = load ptr, ptr %3, align 8, !tbaa !3
  %52 = getelementptr inbounds nuw %struct.BIT_DStream_t, ptr %51, i32 0, i32 1
  %53 = load i32, ptr %52, align 8, !tbaa !79
  %54 = zext i32 %53 to i64
  %55 = icmp ult i64 %54, 64
  br i1 %55, label %56, label %57

56:                                               ; preds = %50
  store i32 1, ptr %2, align 4
  br label %106

57:                                               ; preds = %50
  store i32 2, ptr %2, align 4
  br label %106

58:                                               ; preds = %42
  call void @llvm.lifetime.start.p0(i64 4, ptr %4) #9
  %59 = load ptr, ptr %3, align 8, !tbaa !3
  %60 = getelementptr inbounds nuw %struct.BIT_DStream_t, ptr %59, i32 0, i32 1
  %61 = load i32, ptr %60, align 8, !tbaa !79
  %62 = lshr i32 %61, 3
  store i32 %62, ptr %4, align 4, !tbaa !15
  call void @llvm.lifetime.start.p0(i64 4, ptr %5) #9
  store i32 0, ptr %5, align 4, !tbaa !15
  %63 = load ptr, ptr %3, align 8, !tbaa !3
  %64 = getelementptr inbounds nuw %struct.BIT_DStream_t, ptr %63, i32 0, i32 2
  %65 = load ptr, ptr %64, align 8, !tbaa !77
  %66 = load i32, ptr %4, align 4, !tbaa !15
  %67 = zext i32 %66 to i64
  %68 = sub i64 0, %67
  %69 = getelementptr inbounds i8, ptr %65, i64 %68
  %70 = load ptr, ptr %3, align 8, !tbaa !3
  %71 = getelementptr inbounds nuw %struct.BIT_DStream_t, ptr %70, i32 0, i32 3
  %72 = load ptr, ptr %71, align 8, !tbaa !76
  %73 = icmp ult ptr %69, %72
  br i1 %73, label %74, label %85

74:                                               ; preds = %58
  %75 = load ptr, ptr %3, align 8, !tbaa !3
  %76 = getelementptr inbounds nuw %struct.BIT_DStream_t, ptr %75, i32 0, i32 2
  %77 = load ptr, ptr %76, align 8, !tbaa !77
  %78 = load ptr, ptr %3, align 8, !tbaa !3
  %79 = getelementptr inbounds nuw %struct.BIT_DStream_t, ptr %78, i32 0, i32 3
  %80 = load ptr, ptr %79, align 8, !tbaa !76
  %81 = ptrtoint ptr %77 to i64
  %82 = ptrtoint ptr %80 to i64
  %83 = sub i64 %81, %82
  %84 = trunc i64 %83 to i32
  store i32 %84, ptr %4, align 4, !tbaa !15
  store i32 1, ptr %5, align 4, !tbaa !15
  br label %85

85:                                               ; preds = %74, %58
  %86 = load i32, ptr %4, align 4, !tbaa !15
  %87 = load ptr, ptr %3, align 8, !tbaa !3
  %88 = getelementptr inbounds nuw %struct.BIT_DStream_t, ptr %87, i32 0, i32 2
  %89 = load ptr, ptr %88, align 8, !tbaa !77
  %90 = zext i32 %86 to i64
  %91 = sub i64 0, %90
  %92 = getelementptr inbounds i8, ptr %89, i64 %91
  store ptr %92, ptr %88, align 8, !tbaa !77
  %93 = load i32, ptr %4, align 4, !tbaa !15
  %94 = mul i32 %93, 8
  %95 = load ptr, ptr %3, align 8, !tbaa !3
  %96 = getelementptr inbounds nuw %struct.BIT_DStream_t, ptr %95, i32 0, i32 1
  %97 = load i32, ptr %96, align 8, !tbaa !79
  %98 = sub i32 %97, %94
  store i32 %98, ptr %96, align 8, !tbaa !79
  %99 = load ptr, ptr %3, align 8, !tbaa !3
  %100 = getelementptr inbounds nuw %struct.BIT_DStream_t, ptr %99, i32 0, i32 2
  %101 = load ptr, ptr %100, align 8, !tbaa !77
  %102 = call i64 @MEM_readLEST(ptr noundef %101)
  %103 = load ptr, ptr %3, align 8, !tbaa !3
  %104 = getelementptr inbounds nuw %struct.BIT_DStream_t, ptr %103, i32 0, i32 0
  store i64 %102, ptr %104, align 8, !tbaa !78
  %105 = load i32, ptr %5, align 4, !tbaa !15
  store i32 %105, ptr %2, align 4
  call void @llvm.lifetime.end.p0(i64 4, ptr %5) #9
  call void @llvm.lifetime.end.p0(i64 4, ptr %4) #9
  br label %106

106:                                              ; preds = %85, %57, %56, %21, %11
  %107 = load i32, ptr %2, align 4
  ret i32 %107
}