; Function Attrs: inlinehint mustprogress nofree norecurse nosync nounwind willreturn memory(read, argmem: readwrite, inaccessiblemem: none) uwtable
define internal fastcc range(i32 0, 4) i32 @BIT_reloadDStream(ptr noundef nonnull captures(none) %0) unnamed_addr #13 {
  %2 = getelementptr inbounds nuw i8, ptr %0, i64 8
  %3 = load i32, ptr %2, align 8, !tbaa !47
  %4 = icmp ugt i32 %3, 64
  br i1 %4, label %35, label %5

5:                                                ; preds = %1
  %6 = getelementptr inbounds nuw i8, ptr %0, i64 16
  %7 = load ptr, ptr %6, align 8, !tbaa !45
  %8 = getelementptr inbounds nuw i8, ptr %0, i64 24
  %9 = load ptr, ptr %8, align 8, !tbaa !43
  %10 = getelementptr inbounds nuw i8, ptr %9, i64 8
  %.not = icmp ult ptr %7, %10
  br i1 %.not, label %17, label %11

11:                                               ; preds = %5
  %12 = lshr i32 %3, 3
  %13 = zext nneg i32 %12 to i64
  %14 = sub nsw i64 0, %13
  %15 = getelementptr inbounds i8, ptr %7, i64 %14
  store ptr %15, ptr %6, align 8, !tbaa !45
  %16 = and i32 %3, 7
  store i32 %16, ptr %2, align 8, !tbaa !47
  %.val = load i64, ptr %15, align 1
  store i64 %.val, ptr %0, align 8, !tbaa !46
  br label %35

17:                                               ; preds = %5
  %18 = icmp eq ptr %7, %9
  br i1 %18, label %19, label %20

19:                                               ; preds = %17
  %.not29 = icmp eq i32 %3, 64
  %. = select i1 %.not29, i32 2, i32 1
  br label %35

20:                                               ; preds = %17
  %21 = lshr i32 %3, 3
  %22 = zext nneg i32 %21 to i64
  %23 = sub nsw i64 0, %22
  %24 = getelementptr inbounds i8, ptr %7, i64 %23
  %25 = icmp ult ptr %24, %9
  %26 = ptrtoint ptr %7 to i64
  %27 = ptrtoint ptr %9 to i64
  %28 = sub i64 %26, %27
  %29 = trunc i64 %28 to i32
  %.024 = select i1 %25, i32 %29, i32 %21
  %.0 = zext i1 %25 to i32
  %30 = zext i32 %.024 to i64
  %31 = sub nsw i64 0, %30
  %32 = getelementptr inbounds i8, ptr %7, i64 %31
  store ptr %32, ptr %6, align 8, !tbaa !45
  %33 = shl i32 %.024, 3
  %34 = sub i32 %3, %33
  store i32 %34, ptr %2, align 8, !tbaa !47
  %.val30 = load i64, ptr %32, align 1
  store i64 %.val30, ptr %0, align 8, !tbaa !46
  br label %35

35:                                               ; preds = %19, %1, %20, %11
  %.025 = phi i32 [ 0, %11 ], [ %.0, %20 ], [ 3, %1 ], [ %., %19 ]
  ret i32 %.025
}